; Function Attrs: mustprogress uwtable
define noundef nonnull align 8 dereferenceable(64) ptr @_ZNK6icu_7722LocaleDisplayNamesImpl24adjustForUsageAndContextENS0_15CapContextUsageERNS_13UnicodeStringE(ptr noundef nonnull align 8 dereferenceable(1206) %0, i32 noundef %1, ptr noundef nonnull returned align 8 dereferenceable(64) %2) local_unnamed_addr #1 align 2 personality ptr @__gxx_personality_v0 {
  %4 = getelementptr inbounds nuw i8, ptr %2, i64 8
  %5 = load i16, ptr %4, align 8, !tbaa !20
  %6 = icmp slt i16 %5, 0
  %7 = ashr i16 %5, 5
  %8 = sext i16 %7 to i32
  %9 = getelementptr inbounds nuw i8, ptr %2, i64 12
  %10 = load i32, ptr %9, align 4
  %11 = select i1 %6, i32 %10, i32 %8
  %12 = icmp sgt i32 %11, 0
  br i1 %12, label %13, label %_ZN6icu_775MutexD2Ev.exit

13:                                               ; preds = %3
  %14 = tail call noundef i32 @_ZNK6icu_7713UnicodeString8char32AtEi(ptr noundef nonnull align 8 dereferenceable(64) %2, i32 noundef 0)
  %15 = tail call signext i8 @u_islower_77(i32 noundef %14)
  %.not = icmp eq i8 %15, 0
  br i1 %.not, label %_ZN6icu_775MutexD2Ev.exit, label %16

16:                                               ; preds = %13
  %17 = getelementptr inbounds nuw i8, ptr %0, i64 928
  %18 = load ptr, ptr %17, align 8, !tbaa !33
  %.not7 = icmp eq ptr %18, null
  br i1 %.not7, label %_ZN6icu_775MutexD2Ev.exit, label %19

19:                                               ; preds = %16
  %20 = getelementptr inbounds nuw i8, ptr %0, i64 920
  %21 = load i32, ptr %20, align 8, !tbaa !32
  %22 = icmp eq i32 %21, 258
  br i1 %22, label %29, label %23

23:                                               ; preds = %19
  %24 = getelementptr inbounds nuw i8, ptr %0, i64 1200
  %25 = zext i32 %1 to i64
  %26 = getelementptr inbounds nuw [6 x i8], ptr %24, i64 0, i64 %25
  %27 = load i8, ptr %26, align 1, !tbaa !52, !range !47, !noundef !48
  %28 = trunc nuw i8 %27 to i1
  br i1 %28, label %29, label %_ZN6icu_775MutexD2Ev.exit

29:                                               ; preds = %23, %19
  tail call void @umtx_lock_77(ptr noundef nonnull @_ZZNK6icu_7722LocaleDisplayNamesImpl24adjustForUsageAndContextENS0_15CapContextUsageERNS_13UnicodeStringEE25capitalizationBrkIterLock)
  %30 = load ptr, ptr %17, align 8, !tbaa !33
  %31 = getelementptr inbounds nuw i8, ptr %0, i64 8
  %32 = invoke noundef nonnull align 8 dereferenceable(64) ptr @_ZN6icu_7713UnicodeString7toTitleEPNS_13BreakIteratorERKNS_6LocaleEj(ptr noundef nonnull align 8 dereferenceable(64) %2, ptr noundef %30, ptr noundef nonnull align 8 dereferenceable(217) %31, i32 noundef 768)
          to label %33 unwind label %37

33:                                               ; preds = %29
  invoke void @umtx_unlock_77(ptr noundef nonnull @_ZZNK6icu_7722LocaleDisplayNamesImpl24adjustForUsageAndContextENS0_15CapContextUsageERNS_13UnicodeStringEE25capitalizationBrkIterLock)
          to label %_ZN6icu_775MutexD2Ev.exit unwind label %34

34:                                               ; preds = %33
  %35 = landingpad { ptr, i32 }
          catch ptr null
  %36 = extractvalue { ptr, i32 } %35, 0
  tail call void @__clang_call_terminate(ptr %36) #21
  unreachable

37:                                               ; preds = %29
  %38 = landingpad { ptr, i32 }
          cleanup
  invoke void @umtx_unlock_77(ptr noundef nonnull @_ZZNK6icu_7722LocaleDisplayNamesImpl24adjustForUsageAndContextENS0_15CapContextUsageERNS_13UnicodeStringEE25capitalizationBrkIterLock)
          to label %_ZN6icu_775MutexD2Ev.exit8 unwind label %39

39:                                               ; preds = %37
  %40 = landingpad { ptr, i32 }
          catch ptr null
  %41 = extractvalue { ptr, i32 } %40, 0
  tail call void @__clang_call_terminate(ptr %41) #21
  unreachable

_ZN6icu_775MutexD2Ev.exit8:                       ; preds = %37
  resume { ptr, i32 } %38

_ZN6icu_775MutexD2Ev.exit:                        ; preds = %33, %23, %16, %13, %3
  ret ptr %2
}